(lp0
(lp1
(I-1
I1
tp2
a(I-1
I3
tp3
a(I-1
I5
tp4
a(I-1
I-1
tp5
a(I-1
I-3
tp6
a(I-1
I-5
tp7
aa(lp8
(I0
I0
tp9
a(I0
I2
tp10
a(I0
I4
tp11
a(I0
I-2
tp12
a(I0
I-4
tp13
a(I2
I-4
tp14
aa(lp15
(I0
I0
tp16
a(I0
I2
tp17
a(I0
I4
tp18
a(I0
I-2
tp19
a(I0
I-4
tp20
a(I-2
I-4
tp21
aa(lp22
(I0
I-4
tp23
a(I0
I-2
tp24
a(I0
I0
tp25
a(I0
I2
tp26
a(I0
I4
tp27
a(I2
I-2
tp28
aa(lp29
(I0
I-4
tp30
a(I0
I-2
tp31
a(I0
I0
tp32
a(I0
I2
tp33
a(I0
I4
tp34
a(I-2
I-2
tp35
aa(lp36
(I0
I-4
tp37
a(I0
I-2
tp38
a(I0
I0
tp39
a(I2
I0
tp40
a(I0
I2
tp41
a(I0
I4
tp42
aa(lp43
(I0
I-2
tp44
a(I0
I0
tp45
a(I0
I2
tp46
a(I0
I4
tp47
a(I2
I-2
tp48
a(I2
I-4
tp49
aa(lp50
(I0
I-2
tp51
a(I0
I0
tp52
a(I0
I2
tp53
a(I0
I4
tp54
a(I-2
I-2
tp55
a(I-2
I-4
tp56
aa(lp57
(I0
I0
tp58
a(I0
I2
tp59
a(I0
I4
tp60
a(I2
I0
tp61
a(I2
I-2
tp62
a(I0
I-2
tp63
aa(lp64
(I0
I0
tp65
a(I0
I2
tp66
a(I0
I4
tp67
a(I-2
I0
tp68
a(I-2
I-2
tp69
a(I0
I-2
tp70
aa(lp71
(I-1
I-3
tp72
a(I1
I-3
tp73
a(I-1
I-1
tp74
a(I-1
I1
tp75
a(I1
I1
tp76
a(I-1
I3
tp77
aa(lp78
(I1
I-3
tp79
a(I-1
I-3
tp80
a(I1
I-1
tp81
a(I1
I1
tp82
a(I-1
I1
tp83
a(I1
I3
tp84
aa(lp85
(I-1
I-1
tp86
a(I-1
I1
tp87
a(I-1
I3
tp88
a(I1
I3
tp89
a(I-1
I-3
tp90
a(I1
I-3
tp91
aa(lp92
(I-1
I-3
tp93
a(I-1
I-1
tp94
a(I-1
I1
tp95
a(I-1
I3
tp96
a(I1
I1
tp97
a(I1
I-1
tp98
aa(lp99
(I-2
I0
tp100
a(I-2
I2
tp101
a(I-2
I4
tp102
a(I-2
I-2
tp103
a(I0
I-2
tp104
a(I2
I-2
tp105
aa(lp106
(I2
I0
tp107
a(I2
I2
tp108
a(I2
I4
tp109
a(I2
I-2
tp110
a(I0
I-2
tp111
a(I-2
I-2
tp112
aa(lp113
(I-1
I-1
tp114
a(I-1
I-3
tp115
a(I1
I-1
tp116
a(I3
I-1
tp117
a(I-1
I1
tp118
a(I-1
I3
tp119
aa(lp120
(I1
I-1
tp121
a(I1
I-3
tp122
a(I-1
I-1
tp123
a(I-3
I-1
tp124
a(I1
I1
tp125
a(I1
I3
tp126
aa(lp127
(I0
I0
tp128
a(I0
I2
tp129
a(I0
I4
tp130
a(I-2
I-2
tp131
a(I0
I-2
tp132
a(I2
I-2
tp133
aa(lp134
(I-2
I0
tp135
a(I0
I0
tp136
a(I0
I2
tp137
a(I0
I4
tp138
a(I0
I-2
tp139
a(I2
I-2
tp140
aa(lp141
(I2
I0
tp142
a(I0
I0
tp143
a(I0
I2
tp144
a(I0
I4
tp145
a(I0
I-2
tp146
a(I-2
I-2
tp147
aa(lp148
(I0
I0
tp149
a(I0
I2
tp150
a(I0
I4
tp151
a(I-2
I2
tp152
a(I0
I-2
tp153
a(I2
I-2
tp154
aa(lp155
(I0
I0
tp156
a(I0
I2
tp157
a(I0
I4
tp158
a(I2
I2
tp159
a(I0
I-2
tp160
a(I-2
I-2
tp161
aa(lp162
(I0
I0
tp163
a(I0
I-2
tp164
a(I0
I-4
tp165
a(I2
I-4
tp166
a(I0
I2
tp167
a(I-2
I2
tp168
aa(lp169
(I0
I0
tp170
a(I0
I-2
tp171
a(I0
I-4
tp172
a(I-2
I-4
tp173
a(I0
I2
tp174
a(I2
I2
tp175
aa(lp176
(I0
I0
tp177
a(I0
I2
tp178
a(I-2
I0
tp179
a(I0
I-2
tp180
a(I0
I-4
tp181
a(I2
I-2
tp182
aa(lp183
(I0
I0
tp184
a(I0
I2
tp185
a(I2
I0
tp186
a(I0
I-2
tp187
a(I0
I-4
tp188
a(I-2
I-2
tp189
aa(lp190
(I0
I0
tp191
a(I0
I2
tp192
a(I0
I4
tp193
a(I-2
I0
tp194
a(I2
I0
tp195
a(I0
I-2
tp196
aa(lp197
(I0
I0
tp198
a(I-2
I0
tp199
a(I2
I0
tp200
a(I0
I-2
tp201
a(I-2
I2
tp202
a(I-2
I4
tp203
aa(lp204
(I0
I0
tp205
a(I2
I0
tp206
a(I-2
I0
tp207
a(I0
I-2
tp208
a(I2
I2
tp209
a(I2
I4
tp210
aa(lp211
(I0
I-4
tp212
a(I0
I-2
tp213
a(I-2
I-2
tp214
a(I-2
I0
tp215
a(I-2
I2
tp216
a(I0
I2
tp217
aa(lp218
(I0
I-4
tp219
a(I0
I-2
tp220
a(I2
I-2
tp221
a(I2
I0
tp222
a(I2
I2
tp223
a(I0
I2
tp224
aa(lp225
(I0
I-4
tp226
a(I0
I-2
tp227
a(I0
I0
tp228
a(I-2
I0
tp229
a(I-2
I2
tp230
a(I-2
I4
tp231
aa(lp232
(I0
I-4
tp233
a(I0
I-2
tp234
a(I0
I0
tp235
a(I2
I0
tp236
a(I2
I2
tp237
a(I2
I4
tp238
aa(lp239
(I-1
I-1
tp240
a(I1
I1
tp241
a(I-1
I1
tp242
a(I1
I-1
tp243
a(I1
I-3
tp244
a(I-1
I3
tp245
aa(lp246
(I1
I-1
tp247
a(I-1
I1
tp248
a(I1
I1
tp249
a(I-1
I-1
tp250
a(I-1
I-3
tp251
a(I1
I3
tp252
aa(lp253
(I-1
I-1
tp254
a(I1
I-1
tp255
a(I1
I1
tp256
a(I1
I3
tp257
a(I-1
I3
tp258
a(I-1
I1
tp259
aa(lp260
(I0
I0
tp261
a(I-2
I0
tp262
a(I0
I2
tp263
a(I0
I4
tp264
a(I2
I0
tp265
a(I2
I-2
tp266
aa(lp267
(I0
I0
tp268
a(I2
I0
tp269
a(I0
I2
tp270
a(I0
I4
tp271
a(I-2
I0
tp272
a(I-2
I-2
tp273
aa(lp274
(I-1
I-1
tp275
a(I-3
I-1
tp276
a(I-1
I1
tp277
a(I-1
I3
tp278
a(I1
I1
tp279
a(I1
I-1
tp280
aa(lp281
(I1
I-1
tp282
a(I3
I-1
tp283
a(I1
I1
tp284
a(I1
I3
tp285
a(I-1
I1
tp286
a(I-1
I-1
tp287
aa(lp288
(I-3
I1
tp289
a(I-1
I1
tp290
a(I-1
I3
tp291
a(I-1
I-1
tp292
a(I1
I-1
tp293
a(I1
I-3
tp294
aa(lp295
(I3
I1
tp296
a(I1
I1
tp297
a(I1
I3
tp298
a(I1
I-1
tp299
a(I-1
I-1
tp300
a(I-1
I-3
tp301
aa(lp302
(I0
I0
tp303
a(I-2
I0
tp304
a(I-2
I2
tp305
a(I-2
I4
tp306
a(I2
I0
tp307
a(I2
I-2
tp308
aa(lp309
(I0
I0
tp310
a(I2
I0
tp311
a(I2
I2
tp312
a(I2
I4
tp313
a(I-2
I0
tp314
a(I-2
I-2
tp315
aa(lp316
(I0
I0
tp317
a(I0
I-2
tp318
a(I2
I-2
tp319
a(I-2
I0
tp320
a(I-2
I2
tp321
a(I-2
I4
tp322
aa(lp323
(I0
I0
tp324
a(I0
I-2
tp325
a(I-2
I-2
tp326
a(I2
I0
tp327
a(I2
I2
tp328
a(I2
I4
tp329
aa(lp330
(I-2
I-2
tp331
a(I-2
I0
tp332
a(I-2
I2
tp333
a(I0
I-2
tp334
a(I2
I-2
tp335
a(I2
I0
tp336
aa(lp337
(I2
I-2
tp338
a(I2
I0
tp339
a(I2
I2
tp340
a(I0
I-2
tp341
a(I-2
I-2
tp342
a(I-2
I0
tp343
aa(lp344
(I-2
I-2
tp345
a(I-2
I0
tp346
a(I0
I0
tp347
a(I2
I0
tp348
a(I2
I-2
tp349
a(I-2
I2
tp350
aa(lp351
(I2
I-2
tp352
a(I2
I0
tp353
a(I0
I0
tp354
a(I-2
I0
tp355
a(I-2
I-2
tp356
a(I2
I2
tp357
aa(lp358
(I-2
I-2
tp359
a(I-2
I0
tp360
a(I0
I0
tp361
a(I0
I2
tp362
a(I2
I0
tp363
a(I2
I-2
tp364
aa(lp365
(I0
I0
tp366
a(I0
I2
tp367
a(I-2
I2
tp368
a(I-2
I4
tp369
a(I0
I-2
tp370
a(I2
I-2
tp371
aa(lp372
(I0
I0
tp373
a(I0
I2
tp374
a(I2
I2
tp375
a(I2
I4
tp376
a(I0
I-2
tp377
a(I-2
I-2
tp378
aa(lp379
(I-2
I-2
tp380
a(I-2
I0
tp381
a(I-2
I2
tp382
a(I0
I2
tp383
a(I2
I2
tp384
a(I0
I0
tp385
aa(lp386
(I0
I0
tp387
a(I-2
I0
tp388
a(I-2
I2
tp389
a(I0
I2
tp390
a(I2
I0
tp391
a(I0
I-2
tp392
aa(lp393
(I0
I0
tp394
a(I-2
I0
tp395
a(I-2
I2
tp396
a(I0
I2
tp397
a(I2
I0
tp398
a(I2
I-2
tp399
aa(lp400
(I0
I0
tp401
a(I2
I0
tp402
a(I2
I2
tp403
a(I0
I2
tp404
a(I-2
I0
tp405
a(I-2
I-2
tp406
aa(lp407
(I-2
I2
tp408
a(I-2
I0
tp409
a(I0
I0
tp410
a(I0
I-2
tp411
a(I2
I-2
tp412
a(I2
I-4
tp413
aa(lp414
(I2
I2
tp415
a(I2
I0
tp416
a(I0
I0
tp417
a(I0
I-2
tp418
a(I-2
I-2
tp419
a(I-2
I-4
tp420
aa.