(lp0
(lp1
(I0
I0
tp2
a(I0
I2
tp3
a(I0
I4
tp4
a(I0
I-2
tp5
a(I0
I-4
tp6
aa(lp7
(I-2
I-4
tp8
a(I0
I-4
tp9
a(I2
I-4
tp10
a(I2
I-2
tp11
a(I2
I0
tp12
a(I0
I0
tp13
a(I-2
I0
tp14
a(I-2
I2
tp15
a(I-2
I4
tp16
a(I0
I4
tp17
a(I2
I4
tp18
aa(lp19
(I-2
I-4
tp20
a(I0
I-4
tp21
a(I2
I-4
tp22
a(I2
I-2
tp23
a(I2
I0
tp24
a(I0
I0
tp25
a(I-2
I0
tp26
a(I2
I2
tp27
a(I2
I4
tp28
a(I0
I4
tp29
a(I-2
I4
tp30
aa(lp31
(I-2
I-4
tp32
a(I-2
I0
tp33
a(I-2
I-2
tp34
a(I0
I0
tp35
a(I2
I0
tp36
a(I2
I-2
tp37
a(I2
I-4
tp38
a(I2
I2
tp39
a(I2
I4
tp40
aa(lp41
(I-2
I-4
tp42
a(I-2
I-2
tp43
a(I-2
I0
tp44
a(I0
I0
tp45
a(I2
I0
tp46
a(I2
I2
tp47
a(I2
I4
tp48
a(I0
I4
tp49
a(I-2
I4
tp50
a(I0
I-4
tp51
a(I2
I-4
tp52
aa(lp53
(I-2
I-4
tp54
a(I-2
I-2
tp55
a(I-2
I0
tp56
a(I-2
I2
tp57
a(I-2
I4
tp58
a(I0
I4
tp59
a(I2
I4
tp60
a(I2
I0
tp61
a(I2
I2
tp62
a(I0
I0
tp63
a(I0
I-4
tp64
a(I2
I-4
tp65
aa(lp66
(I2
I0
tp67
a(I2
I-2
tp68
a(I2
I-4
tp69
a(I0
I-4
tp70
a(I-2
I-4
tp71
a(I2
I2
tp72
a(I2
I4
tp73
aa(lp74
(I-2
I0
tp75
a(I0
I0
tp76
a(I2
I0
tp77
a(I2
I2
tp78
a(I2
I4
tp79
a(I0
I4
tp80
a(I-2
I4
tp81
a(I-2
I2
tp82
a(I-2
I-2
tp83
a(I-2
I-4
tp84
a(I0
I-4
tp85
a(I2
I-4
tp86
a(I2
I-2
tp87
aa(lp88
(I-2
I0
tp89
a(I0
I0
tp90
a(I2
I0
tp91
a(I2
I2
tp92
a(I2
I4
tp93
a(I2
I-2
tp94
a(I2
I-4
tp95
a(I0
I-4
tp96
a(I-2
I-4
tp97
a(I-2
I-2
tp98
aa(lp99
(I-2
I-4
tp100
a(I-2
I-2
tp101
a(I-2
I0
tp102
a(I-2
I2
tp103
a(I-2
I4
tp104
a(I0
I4
tp105
a(I2
I4
tp106
a(I2
I2
tp107
a(I2
I0
tp108
a(I2
I-2
tp109
a(I2
I-4
tp110
a(I0
I-4
tp111
aa.